target datalayout = "e-m:e-p270:32:32-p271:32:32-p272:64:64-i64:64-i128:128-f80:128-n8:16:32:64-S128"
target triple = "x86_64-pc-linux-gnu"

@rb_sigaltstack_size_value = internal global i32 0, align 4

; Function Attrs: nounwind sspstrong uwtable
define internal i32 @rb_sigaltstack_size() #1 {
  %1 = alloca i32, align 4
  %2 = alloca i32, align 4
  %3 = alloca i32, align 4
  call void @llvm.lifetime.start.p0(i64 4, ptr %1) #22
  store i32 16384, ptr %1, align 4, !tbaa !7
  call void @llvm.lifetime.start.p0(i64 4, ptr %2) #22
  %4 = call i64 @sysconf(i32 noundef 250) #22
  %5 = trunc i64 %4 to i32
  store i32 %5, ptr %2, align 4, !tbaa !7
  %6 = load i32, ptr %1, align 4, !tbaa !7
  %7 = load i32, ptr %2, align 4, !tbaa !7
  %8 = icmp slt i32 %6, %7
  br i1 %8, label %9, label %11

9:                                                ; preds = %0
  %10 = load i32, ptr %2, align 4, !tbaa !7
  store i32 %10, ptr %1, align 4, !tbaa !7
  br label %11

11:                                               ; preds = %9, %0
  call void @llvm.lifetime.end.p0(i64 4, ptr %2) #22
  call void @llvm.lifetime.start.p0(i64 4, ptr %3) #22
  %12 = call i64 @sysconf(i32 noundef 30) #22
  %13 = trunc i64 %12 to i32
  store i32 %13, ptr %3, align 4, !tbaa !7
  %14 = load i32, ptr %1, align 4, !tbaa !7
  %15 = load i32, ptr %3, align 4, !tbaa !7
  %16 = icmp slt i32 %14, %15
  br i1 %16, label %17, label %19

17:                                               ; preds = %11
  %18 = load i32, ptr %3, align 4, !tbaa !7
  store i32 %18, ptr %1, align 4, !tbaa !7
  br label %19

19:                                               ; preds = %17, %11
  call void @llvm.lifetime.end.p0(i64 4, ptr %3) #22
  %20 = load i32, ptr %1, align 4, !tbaa !7
  call void @llvm.lifetime.end.p0(i64 4, ptr %1) #22
  ret i32 %20
}

; Function Attrs: nounwind sspstrong uwtable
define hidden ptr @rb_allocate_sigaltstack() #1 {
  %1 = alloca ptr, align 8
  call void @llvm.lifetime.start.p0(i64 8, ptr %1) #22
  %2 = load i32, ptr @rb_sigaltstack_size_value, align 4, !tbaa !7
  %3 = icmp ne i32 %2, 0
  br i1 %3, label %6, label %4

4:                                                ; preds = %0
  %5 = call i32 @rb_sigaltstack_size()
  store i32 %5, ptr @rb_sigaltstack_size_value, align 4, !tbaa !7
  br label %6

6:                                                ; preds = %4, %0
  %7 = load i32, ptr @rb_sigaltstack_size_value, align 4, !tbaa !7
  %8 = sext i32 %7 to i64
  %9 = call noalias ptr @malloc(i64 noundef %8) #32
  store ptr %9, ptr %1, align 8, !tbaa !61
  %10 = load ptr, ptr %1, align 8, !tbaa !61
  %11 = icmp ne ptr %10, null
  br i1 %11, label %13, label %12

12:                                               ; preds = %6
  call void @rb_memerror() #33
  unreachable

13:                                               ; preds = %6
  %14 = load ptr, ptr %1, align 8, !tbaa !61
  call void @llvm.lifetime.end.p0(i64 8, ptr %1) #22
  ret ptr %14
}