; Function Attrs: nounwind sspstrong uwtable
define hidden noalias nonnull ptr @rb_allocate_sigaltstack() local_unnamed_addr #1 {
  %1 = load i32, ptr @rb_sigaltstack_size_value, align 4, !tbaa !19
  %.not = icmp eq i32 %1, 0
  br i1 %.not, label %2, label %7

2:                                                ; preds = %0
  %3 = tail call i64 @sysconf(i32 noundef 250) #17
  %4 = trunc i64 %3 to i32
  %5 = tail call i64 @sysconf(i32 noundef 30) #17
  %6 = trunc i64 %5 to i32
  %spec.select.i = tail call i32 @llvm.smax.i32(i32 %4, i32 %6)
  %.1.i = tail call range(i32 16384, -2147483648) i32 @llvm.smax.i32(i32 %spec.select.i, i32 16384)
  store i32 %.1.i, ptr @rb_sigaltstack_size_value, align 4, !tbaa !19
  br label %7

7:                                                ; preds = %2, %0
  %8 = phi i32 [ %.1.i, %2 ], [ %1, %0 ]
  %9 = zext nneg i32 %8 to i64
  %10 = tail call noalias ptr @malloc(i64 noundef %9) #26
  %.not2 = icmp eq ptr %10, null
  br i1 %.not2, label %11, label %12

11:                                               ; preds = %7
  tail call void @rb_memerror() #27
  unreachable

12:                                               ; preds = %7
  ret ptr %10
}